target datalayout = "e-m:e-p270:32:32-p271:32:32-p272:64:64-i64:64-i128:128-f80:128-n8:16:32:64-S128"
target triple = "x86_64-pc-linux-gnu"

; Function Attrs: nounwind uwtable
define internal void @sbr_qmf_post_shuffle_c(ptr noundef %0, ptr noundef %1) #1 {
  %3 = alloca ptr, align 8
  %4 = alloca ptr, align 8
  %5 = alloca i32, align 4
  store ptr %0, ptr %3, align 8, !tbaa !21
  store ptr %1, ptr %4, align 8, !tbaa !21
  call void @llvm.lifetime.start.p0(i64 4, ptr %5) #8
  store i32 0, ptr %5, align 4, !tbaa !23
  br label %6

6:                                                ; preds = %32, %2
  %7 = load i32, ptr %5, align 4, !tbaa !23
  %8 = icmp slt i32 %7, 32
  br i1 %8, label %9, label %35

9:                                                ; preds = %6
  %10 = load ptr, ptr %4, align 8, !tbaa !21
  %11 = load i32, ptr %5, align 4, !tbaa !23
  %12 = sub nsw i32 63, %11
  %13 = sext i32 %12 to i64
  %14 = getelementptr inbounds i32, ptr %10, i64 %13
  %15 = load i32, ptr %14, align 4, !tbaa !23
  %16 = sub nsw i32 0, %15
  %17 = load ptr, ptr %3, align 8, !tbaa !21
  %18 = load i32, ptr %5, align 4, !tbaa !23
  %19 = sext i32 %18 to i64
  %20 = getelementptr inbounds [2 x i32], ptr %17, i64 %19
  %21 = getelementptr inbounds [2 x i32], ptr %20, i64 0, i64 0
  store i32 %16, ptr %21, align 4, !tbaa !23
  %22 = load ptr, ptr %4, align 8, !tbaa !21
  %23 = load i32, ptr %5, align 4, !tbaa !23
  %24 = sext i32 %23 to i64
  %25 = getelementptr inbounds i32, ptr %22, i64 %24
  %26 = load i32, ptr %25, align 4, !tbaa !23
  %27 = load ptr, ptr %3, align 8, !tbaa !21
  %28 = load i32, ptr %5, align 4, !tbaa !23
  %29 = sext i32 %28 to i64
  %30 = getelementptr inbounds [2 x i32], ptr %27, i64 %29
  %31 = getelementptr inbounds [2 x i32], ptr %30, i64 0, i64 1
  store i32 %26, ptr %31, align 4, !tbaa !23
  br label %32

32:                                               ; preds = %9
  %33 = load i32, ptr %5, align 4, !tbaa !23
  %34 = add nsw i32 %33, 1
  store i32 %34, ptr %5, align 4, !tbaa !23
  br label %6, !llvm.loop !35

35:                                               ; preds = %6
  call void @llvm.lifetime.end.p0(i64 4, ptr %5) #8
  ret void
}