; Function Attrs: nofree norecurse nosync nounwind memory(argmem: readwrite) uwtable
define internal void @sbr_qmf_post_shuffle_c(ptr noundef writeonly captures(none) %0, ptr noundef readonly captures(none) %1) #1 {
  br label %3

3:                                                ; preds = %2, %3
  %indvars.iv = phi i64 [ 0, %2 ], [ %indvars.iv.next, %3 ]
  %4 = sub nuw nsw i64 63, %indvars.iv
  %5 = getelementptr inbounds nuw i32, ptr %1, i64 %4
  %6 = load i32, ptr %5, align 4, !tbaa !19
  %7 = sub nsw i32 0, %6
  %8 = getelementptr inbounds nuw [2 x i32], ptr %0, i64 %indvars.iv
  store i32 %7, ptr %8, align 4, !tbaa !19
  %9 = getelementptr inbounds nuw i32, ptr %1, i64 %indvars.iv
  %10 = load i32, ptr %9, align 4, !tbaa !19
  %11 = getelementptr inbounds nuw i8, ptr %8, i64 4
  store i32 %10, ptr %11, align 4, !tbaa !19
  %indvars.iv.next = add nuw nsw i64 %indvars.iv, 1
  %exitcond.not = icmp eq i64 %indvars.iv.next, 32
  br i1 %exitcond.not, label %12, label %3, !llvm.loop !29

12:                                               ; preds = %3
  ret void
}